; Function Attrs: nounwind uwtable
define internal range(i32 -1, 1) i32 @np_longlong(ptr noundef readonly captures(none) %0, ptr noundef writeonly captures(none) %1, ptr noundef %2, ptr noundef readonly captures(none) %3) #0 {
  %5 = getelementptr i8, ptr %2, i64 8
  %.val.i.i = load ptr, ptr %5, align 8, !tbaa !24
  %6 = getelementptr i8, ptr %.val.i.i, i64 168
  %.val11.i.i = load i64, ptr %6, align 8, !tbaa !51
  %7 = and i64 %.val11.i.i, 16777216
  %.not.i9.i = icmp eq i64 %7, 0
  br i1 %.not.i9.i, label %8, label %12

8:                                                ; preds = %4
  %9 = tail call i32 @PyIndex_Check(ptr noundef nonnull %2) #7
  %.not10.i.i = icmp eq i32 %9, 0
  br i1 %.not10.i.i, label %get_pylong.exit.thread12.i, label %get_pylong.exit.i

get_pylong.exit.thread12.i:                       ; preds = %8
  %10 = getelementptr inbounds nuw i8, ptr %0, i64 24
  %11 = load ptr, ptr %10, align 8, !tbaa !16
  tail call void @PyErr_SetString(ptr noundef %11, ptr noundef nonnull @.str.50) #7
  br label %28

12:                                               ; preds = %4
  %13 = load i32, ptr %2, align 8, !tbaa !18
  %14 = icmp slt i32 %13, 0
  br i1 %14, label %get_pylong.exit.thread.i, label %15

15:                                               ; preds = %12
  %16 = add nuw i32 %13, 1
  store i32 %16, ptr %2, align 8, !tbaa !18
  br label %get_pylong.exit.thread.i

get_pylong.exit.i:                                ; preds = %8
  %17 = tail call ptr @_PyNumber_Index(ptr noundef nonnull %2) #7
  %18 = icmp eq ptr %17, null
  br i1 %18, label %28, label %get_pylong.exit.thread.i

get_pylong.exit.thread.i:                         ; preds = %get_pylong.exit.i, %15, %12
  %.08.i11.i = phi ptr [ %17, %get_pylong.exit.i ], [ %2, %12 ], [ %2, %15 ]
  %19 = tail call i64 @PyLong_AsLongLong(ptr noundef nonnull %.08.i11.i) #7
  %20 = load i32, ptr %.08.i11.i, align 8, !tbaa !18
  %.not.i.i = icmp sgt i32 %20, -1
  br i1 %.not.i.i, label %21, label %Py_DECREF.exit.i

21:                                               ; preds = %get_pylong.exit.thread.i
  %22 = add nsw i32 %20, -1
  store i32 %22, ptr %.08.i11.i, align 8, !tbaa !18
  %23 = icmp eq i32 %22, 0
  br i1 %23, label %24, label %Py_DECREF.exit.i

24:                                               ; preds = %21
  tail call void @_Py_Dealloc(ptr noundef nonnull %.08.i11.i) #7
  br label %Py_DECREF.exit.i

Py_DECREF.exit.i:                                 ; preds = %24, %21, %get_pylong.exit.thread.i
  %25 = icmp eq i64 %19, -1
  br i1 %25, label %26, label %get_longlong.exit

26:                                               ; preds = %Py_DECREF.exit.i
  %27 = tail call ptr @PyErr_Occurred() #7
  %.not.i = icmp eq ptr %27, null
  br i1 %.not.i, label %get_longlong.exit, label %28

28:                                               ; preds = %get_pylong.exit.i, %26, %get_pylong.exit.thread12.i
  %29 = load ptr, ptr @PyExc_OverflowError, align 8, !tbaa !17
  %30 = tail call i32 @PyErr_ExceptionMatches(ptr noundef %29) #7
  %.not = icmp eq i32 %30, 0
  br i1 %.not, label %37, label %31

31:                                               ; preds = %28
  %32 = getelementptr inbounds nuw i8, ptr %0, i64 24
  %33 = load ptr, ptr %32, align 8, !tbaa !16
  %34 = load i8, ptr %3, align 8, !tbaa !49
  %35 = sext i8 %34 to i32
  %36 = tail call ptr (ptr, ptr, ...) @PyErr_Format(ptr noundef %33, ptr noundef nonnull @.str.54, i32 noundef %35, i64 noundef -9223372036854775808, i64 noundef 9223372036854775807) #7
  br label %37

get_longlong.exit:                                ; preds = %26, %Py_DECREF.exit.i
  store i64 %19, ptr %1, align 1
  br label %37

37:                                               ; preds = %28, %31, %get_longlong.exit
  %.0 = phi i32 [ 0, %get_longlong.exit ], [ -1, %31 ], [ -1, %28 ]
  ret i32 %.0
}